; Function Attrs: mustprogress nofree norecurse nosync nounwind willreturn memory(write, argmem: readwrite, inaccessiblemem: none) uwtable
define void @_ZN5boost6fibers7context13worker_unlinkEv(ptr nocapture noundef nonnull align 8 dereferenceable(232) %0) local_unnamed_addr #16 align 2 personality ptr @__gxx_personality_v0 {
  %2 = getelementptr inbounds nuw i8, ptr %0, i64 184
  %3 = load ptr, ptr %2, align 8, !tbaa !94
  %.not.i.i = icmp eq ptr %3, null
  br i1 %.not.i.i, label %_ZN5boost9intrusive12generic_hookILNS0_10algo_typesE0ENS0_16list_node_traitsIPvEENS0_10member_tagELNS0_14link_mode_typeE2ELNS0_14base_hook_typeE0EE6unlinkEv.exit, label %4

4:                                                ; preds = %1
  %5 = getelementptr inbounds nuw i8, ptr %0, i64 192
  %6 = load ptr, ptr %5, align 8, !tbaa !97
  store ptr %3, ptr %6, align 8, !tbaa !94
  %7 = getelementptr inbounds nuw i8, ptr %3, i64 8
  store ptr %6, ptr %7, align 8, !tbaa !97
  tail call void @llvm.memset.p0.i64(ptr noundef nonnull align 8 dereferenceable(16) %2, i8 0, i64 16, i1 false)
  br label %_ZN5boost9intrusive12generic_hookILNS0_10algo_typesE0ENS0_16list_node_traitsIPvEENS0_10member_tagELNS0_14link_mode_typeE2ELNS0_14base_hook_typeE0EE6unlinkEv.exit

_ZN5boost9intrusive12generic_hookILNS0_10algo_typesE0ENS0_16list_node_traitsIPvEENS0_10member_tagELNS0_14link_mode_typeE2ELNS0_14base_hook_typeE0EE6unlinkEv.exit: ; preds = %1, %4
  ret void
}